target datalayout = "e-m:e-p270:32:32-p271:32:32-p272:64:64-i64:64-i128:128-f80:128-n8:16:32:64-S128"
target triple = "x86_64-pc-linux-gnu"

%struct.OSSL_HPKE_KDF_INFO = type { i16, ptr, i64 }

@.str = private unnamed_addr constant [35 x i8] c"../openssl/crypto/hpke/hpke_util.c\00", align 1
@__func__.ossl_HPKE_KDF_INFO_find_id = private unnamed_addr constant [27 x i8] c"ossl_HPKE_KDF_INFO_find_id\00", align 1

; Function Attrs: nounwind uwtable
define ptr @ossl_HPKE_KDF_INFO_find_id(i16 noundef zeroext %0) #0 {
  %2 = alloca ptr, align 8
  %3 = alloca i16, align 2
  %4 = alloca i32, align 4
  %5 = alloca i32, align 4
  %6 = alloca i32, align 4
  store i16 %0, ptr %3, align 2, !tbaa !17
  call void @llvm.lifetime.start.p0(i64 4, ptr %4) #5
  call void @llvm.lifetime.start.p0(i64 4, ptr %5) #5
  store i32 3, ptr %5, align 4, !tbaa !8
  store i32 0, ptr %4, align 4, !tbaa !8
  br label %7

7:                                                ; preds = %26, %1
  %8 = load i32, ptr %4, align 4, !tbaa !8
  %9 = load i32, ptr %5, align 4, !tbaa !8
  %10 = icmp ne i32 %8, %9
  br i1 %10, label %11, label %29

11:                                               ; preds = %7
  %12 = load i32, ptr %4, align 4, !tbaa !8
  %13 = sext i32 %12 to i64
  %14 = getelementptr inbounds [3 x %struct.OSSL_HPKE_KDF_INFO], ptr @hpke_kdf_tab, i64 0, i64 %13
  %15 = getelementptr inbounds nuw %struct.OSSL_HPKE_KDF_INFO, ptr %14, i32 0, i32 0
  %16 = load i16, ptr %15, align 8, !tbaa !23
  %17 = zext i16 %16 to i32
  %18 = load i16, ptr %3, align 2, !tbaa !17
  %19 = zext i16 %18 to i32
  %20 = icmp eq i32 %17, %19
  br i1 %20, label %21, label %25

21:                                               ; preds = %11
  %22 = load i32, ptr %4, align 4, !tbaa !8
  %23 = sext i32 %22 to i64
  %24 = getelementptr inbounds [3 x %struct.OSSL_HPKE_KDF_INFO], ptr @hpke_kdf_tab, i64 0, i64 %23
  store ptr %24, ptr %2, align 8
  store i32 1, ptr %6, align 4
  br label %30

25:                                               ; preds = %11
  br label %26

26:                                               ; preds = %25
  %27 = load i32, ptr %4, align 4, !tbaa !8
  %28 = add nsw i32 %27, 1
  store i32 %28, ptr %4, align 4, !tbaa !8
  br label %7, !llvm.loop !25

29:                                               ; preds = %7
  call void @ERR_new()
  call void @ERR_set_debug(ptr noundef @.str, i32 noundef 210, ptr noundef @__func__.ossl_HPKE_KDF_INFO_find_id)
  call void (i32, i32, ptr, ...) @ERR_set_error(i32 noundef 57, i32 noundef 232, ptr noundef null)
  store ptr null, ptr %2, align 8
  store i32 1, ptr %6, align 4
  br label %30

30:                                               ; preds = %29, %21
  call void @llvm.lifetime.end.p0(i64 4, ptr %5) #5
  call void @llvm.lifetime.end.p0(i64 4, ptr %4) #5
  %31 = load ptr, ptr %2, align 8
  ret ptr %31
}