; Function Attrs: nounwind uwtable
define noundef ptr @ossl_HPKE_KDF_INFO_find_id(i16 noundef zeroext %0) local_unnamed_addr #0 {
  br label %3

2:                                                ; preds = %3
  %indvars.iv.next = add nuw nsw i64 %indvars.iv, 1
  %.not = icmp eq i64 %indvars.iv.next, 3
  br i1 %.not, label %7, label %3, !llvm.loop !18

3:                                                ; preds = %1, %2
  %indvars.iv = phi i64 [ 0, %1 ], [ %indvars.iv.next, %2 ]
  %4 = getelementptr inbounds nuw [3 x %struct.OSSL_HPKE_KDF_INFO], ptr @hpke_kdf_tab, i64 0, i64 %indvars.iv
  %5 = load i16, ptr %4, align 8, !tbaa !19
  %6 = icmp eq i16 %5, %0
  br i1 %6, label %.loopexit, label %2

7:                                                ; preds = %2
  tail call void @ERR_new() #5
  tail call void @ERR_set_debug(ptr noundef nonnull @.str, i32 noundef 210, ptr noundef nonnull @__func__.ossl_HPKE_KDF_INFO_find_id) #5
  tail call void (i32, i32, ptr, ...) @ERR_set_error(i32 noundef 57, i32 noundef 232, ptr noundef null) #5
  br label %.loopexit

.loopexit:                                        ; preds = %3, %7
  %.0 = phi ptr [ null, %7 ], [ %4, %3 ]
  ret ptr %.0
}